; Function Attrs: mustprogress uwtable
define noundef ptr @_ZNK7rocksdb25WriteBatchEntryComparator13GetComparatorEPKNS_18ColumnFamilyHandleE(ptr noundef nonnull readonly align 8 captures(none) dereferenceable(40) %0, ptr noundef %1) local_unnamed_addr #4 align 2 {
  %.not = icmp eq ptr %1, null
  br i1 %.not, label %8, label %3

3:                                                ; preds = %2
  %4 = load ptr, ptr %1, align 8, !tbaa !18
  %5 = getelementptr inbounds nuw i8, ptr %4, i64 40
  %6 = load ptr, ptr %5, align 8
  %7 = tail call noundef ptr %6(ptr noundef nonnull align 8 dereferenceable(8) %1)
  br label %10

8:                                                ; preds = %2
  %9 = load ptr, ptr %0, align 8, !tbaa !303
  br label %10

10:                                               ; preds = %8, %3
  %11 = phi ptr [ %7, %3 ], [ %9, %8 ]
  ret ptr %11
}